target datalayout = "e-m:e-p270:32:32-p271:32:32-p272:64:64-i64:64-i128:128-f80:128-n8:16:32:64-S128"
target triple = "x86_64-pc-linux-gnu"

%"class.pxrInternal_v0_24__pxrReserved__::PcpNodeRef" = type { ptr, i64 }
%"class.pxrInternal_v0_24__pxrReserved__::UsdPrimCompositionQueryArc" = type { %"class.pxrInternal_v0_24__pxrReserved__::PcpNodeRef", %"class.pxrInternal_v0_24__pxrReserved__::PcpNodeRef", %"class.pxrInternal_v0_24__pxrReserved__::PcpNodeRef", %"class.std::shared_ptr" }
%"class.std::shared_ptr" = type { %"class.std::__shared_ptr" }
%"class.std::__shared_ptr" = type { ptr, %"class.std::__shared_count" }
%"class.std::__shared_count" = type { ptr }
%"struct.pxrInternal_v0_24__pxrReserved__::UsdPrimCompositionQuery::Filter" = type { i32, i32, i32, i32 }

; Function Attrs: mustprogress uwtable
define noundef zeroext i1 @_ZNK32pxrInternal_v0_24__pxrReserved__26UsdPrimCompositionQueryArc8HasSpecsEv(ptr noundef nonnull align 8 dereferenceable(64) %0) #0 align 2 {
  %2 = alloca ptr, align 8
  store ptr %0, ptr %2, align 8
  %3 = load ptr, ptr %2, align 8
  %4 = getelementptr inbounds nuw %"class.pxrInternal_v0_24__pxrReserved__::UsdPrimCompositionQueryArc", ptr %3, i32 0, i32 0
  %5 = call noundef zeroext i1 @_ZNK32pxrInternal_v0_24__pxrReserved__10PcpNodeRef8HasSpecsEv(ptr noundef nonnull align 8 dereferenceable(16) %4)
  ret i1 %5
}

; Function Attrs: mustprogress uwtable
define internal noundef zeroext i1 @_ZN32pxrInternal_v0_24__pxrReserved__L13_TestHasSpecsERKNS_26UsdPrimCompositionQueryArcERKNS_23UsdPrimCompositionQuery6FilterE(ptr noundef nonnull align 8 dereferenceable(64) %0, ptr noundef nonnull align 4 dereferenceable(16) %1) #0 {
  %3 = alloca i1, align 1
  %4 = alloca ptr, align 8
  %5 = alloca ptr, align 8
  store ptr %0, ptr %4, align 8
  store ptr %1, ptr %5, align 8
  %6 = load ptr, ptr %5, align 8
  %7 = getelementptr inbounds nuw %"struct.pxrInternal_v0_24__pxrReserved__::UsdPrimCompositionQuery::Filter", ptr %6, i32 0, i32 3
  %8 = load i32, ptr %7, align 4
  switch i32 %8, label %17 [
    i32 0, label %9
    i32 1, label %10
    i32 2, label %13
  ]

9:                                                ; preds = %2
  store i1 true, ptr %3, align 1
  br label %18

10:                                               ; preds = %2
  %11 = load ptr, ptr %4, align 8
  %12 = call noundef zeroext i1 @_ZNK32pxrInternal_v0_24__pxrReserved__26UsdPrimCompositionQueryArc8HasSpecsEv(ptr noundef nonnull align 8 dereferenceable(64) %11)
  store i1 %12, ptr %3, align 1
  br label %18

13:                                               ; preds = %2
  %14 = load ptr, ptr %4, align 8
  %15 = call noundef zeroext i1 @_ZNK32pxrInternal_v0_24__pxrReserved__26UsdPrimCompositionQueryArc8HasSpecsEv(ptr noundef nonnull align 8 dereferenceable(64) %14)
  %16 = xor i1 %15, true
  store i1 %16, ptr %3, align 1
  br label %18

17:                                               ; preds = %2
  store i1 true, ptr %3, align 1
  br label %18

18:                                               ; preds = %17, %13, %10, %9
  %19 = load i1, ptr %3, align 1
  ret i1 %19
}